target datalayout = "e-m:e-p270:32:32-p271:32:32-p272:64:64-i64:64-i128:128-f80:128-n8:16:32:64-S128"
target triple = "x86_64-pc-linux-gnu"

%struct.stb_vorbis = type { i32, i32, i32, i32, i32, ptr, i32, ptr, ptr, i32, i32, ptr, ptr, ptr, i32, i8, i32, %struct.ProbedPage, %struct.ProbedPage, %struct.stb_vorbis_alloc, i32, i32, i32, i32, [2 x i32], i32, i32, i32, ptr, i32, [64 x i16], ptr, i32, [64 x i16], ptr, i32, ptr, i32, [64 x %struct.Mode], i32, [16 x ptr], [16 x ptr], [16 x ptr], i32, [16 x ptr], i32, i32, [2 x ptr], [2 x ptr], [2 x ptr], [2 x ptr], [2 x ptr], i32, i32, i32, [255 x i8], i8, i8, i8, i32, i32, i32, i32, i32, i32, i32, i32, i32, i32, i32, [4 x %struct.CRCscan], i32, i32 }
%struct.ProbedPage = type { i32, i32, i32 }
%struct.stb_vorbis_alloc = type { ptr, i32 }
%struct.Mode = type { i8, i8, i16, i16 }
%struct.CRCscan = type { i32, i32, i32, i32, i32 }
%struct.stb_vorbis_info = type { i32, i32, i32, i32, i32, i32 }

; Function Attrs: nounwind uwtable
define void @stb_vorbis_get_info(ptr dead_on_unwind noalias writable sret(%struct.stb_vorbis_info) align 4 %0, ptr noundef %1) #0 {
  %3 = alloca ptr, align 8
  store ptr %1, ptr %3, align 8, !tbaa !3
  %4 = load ptr, ptr %3, align 8, !tbaa !3
  %5 = getelementptr inbounds nuw %struct.stb_vorbis, ptr %4, i32 0, i32 1
  %6 = load i32, ptr %5, align 4, !tbaa !122
  %7 = getelementptr inbounds nuw %struct.stb_vorbis_info, ptr %0, i32 0, i32 1
  store i32 %6, ptr %7, align 4, !tbaa !281
  %8 = load ptr, ptr %3, align 8, !tbaa !3
  %9 = getelementptr inbounds nuw %struct.stb_vorbis, ptr %8, i32 0, i32 0
  %10 = load i32, ptr %9, align 8, !tbaa !204
  %11 = getelementptr inbounds nuw %struct.stb_vorbis_info, ptr %0, i32 0, i32 0
  store i32 %10, ptr %11, align 4, !tbaa !283
  %12 = load ptr, ptr %3, align 8, !tbaa !3
  %13 = getelementptr inbounds nuw %struct.stb_vorbis, ptr %12, i32 0, i32 2
  %14 = load i32, ptr %13, align 8, !tbaa !22
  %15 = getelementptr inbounds nuw %struct.stb_vorbis_info, ptr %0, i32 0, i32 2
  store i32 %14, ptr %15, align 4, !tbaa !284
  %16 = load ptr, ptr %3, align 8, !tbaa !3
  %17 = getelementptr inbounds nuw %struct.stb_vorbis, ptr %16, i32 0, i32 4
  %18 = load i32, ptr %17, align 8, !tbaa !217
  %19 = getelementptr inbounds nuw %struct.stb_vorbis_info, ptr %0, i32 0, i32 3
  store i32 %18, ptr %19, align 4, !tbaa !285
  %20 = load ptr, ptr %3, align 8, !tbaa !3
  %21 = getelementptr inbounds nuw %struct.stb_vorbis, ptr %20, i32 0, i32 3
  %22 = load i32, ptr %21, align 4, !tbaa !268
  %23 = getelementptr inbounds nuw %struct.stb_vorbis_info, ptr %0, i32 0, i32 4
  store i32 %22, ptr %23, align 4, !tbaa !286
  %24 = load ptr, ptr %3, align 8, !tbaa !3
  %25 = getelementptr inbounds nuw %struct.stb_vorbis, ptr %24, i32 0, i32 26
  %26 = load i32, ptr %25, align 4, !tbaa !155
  %27 = ashr i32 %26, 1
  %28 = getelementptr inbounds nuw %struct.stb_vorbis_info, ptr %0, i32 0, i32 5
  store i32 %27, ptr %28, align 4, !tbaa !287
  ret void
}