; Function Attrs: mustprogress nofree norecurse nosync nounwind willreturn memory(argmem: readwrite) uwtable
define void @stb_vorbis_get_info(ptr dead_on_unwind noalias writable writeonly sret(%struct.stb_vorbis_info) align 4 captures(none) initializes((0, 24)) %0, ptr noundef readonly captures(none) %1) local_unnamed_addr #30 {
  %3 = getelementptr inbounds nuw i8, ptr %1, i64 4
  %4 = load i32, ptr %3, align 4, !tbaa !110
  %5 = getelementptr inbounds nuw i8, ptr %0, i64 4
  store i32 %4, ptr %5, align 4, !tbaa !270
  %6 = load i32, ptr %1, align 8, !tbaa !191
  store i32 %6, ptr %0, align 4, !tbaa !272
  %7 = getelementptr inbounds nuw i8, ptr %1, i64 8
  %8 = load i32, ptr %7, align 8, !tbaa !9
  %9 = getelementptr inbounds nuw i8, ptr %0, i64 8
  store i32 %8, ptr %9, align 4, !tbaa !273
  %10 = getelementptr inbounds nuw i8, ptr %1, i64 16
  %11 = load i32, ptr %10, align 8, !tbaa !205
  %12 = getelementptr inbounds nuw i8, ptr %0, i64 12
  store i32 %11, ptr %12, align 4, !tbaa !274
  %13 = getelementptr inbounds nuw i8, ptr %1, i64 12
  %14 = load i32, ptr %13, align 4, !tbaa !256
  %15 = getelementptr inbounds nuw i8, ptr %0, i64 16
  store i32 %14, ptr %15, align 4, !tbaa !275
  %16 = getelementptr inbounds nuw i8, ptr %1, i64 172
  %17 = load i32, ptr %16, align 4, !tbaa !142
  %18 = ashr i32 %17, 1
  %19 = getelementptr inbounds nuw i8, ptr %0, i64 20
  store i32 %18, ptr %19, align 4, !tbaa !276
  ret void
}